target datalayout = "e-m:e-p270:32:32-p271:32:32-p272:64:64-i64:64-i128:128-f80:128-n8:16:32:64-S128"
target triple = "x86_64-pc-linux-gnu"

%struct.hwloc_backend = type { ptr, ptr, i32, ptr, i32, i64, i32, ptr, ptr, ptr }
%struct.hwloc_x86_backend_data_s = type { i32, ptr, i32, ptr, i32, i32, i32, i32, i32, i32, i32 }
%struct.hwloc_topology = type { i32, i32, i32, ptr, ptr, i64, [20 x i32], [20 x i32], i64, i64, i32, ptr, i64, ptr, i64, [6 x %struct.hwloc_special_level_s], ptr, ptr, %struct.hwloc_binding_hooks, %struct.hwloc_topology_support, %struct.hwloc_infos_s, ptr, ptr, i32, ptr, ptr, i32, i32, ptr, i32, i32, ptr, i32, i32, i32, [5 x float], i32, ptr, ptr, i32, i32, ptr, i32, %struct.hwloc_numanode_attr_s, i32, i32, ptr, i64, i32, ptr, ptr, ptr }
%struct.hwloc_special_level_s = type { i32, ptr, ptr, ptr }
%struct.hwloc_binding_hooks = type { ptr, ptr, ptr, ptr, ptr, ptr, ptr, ptr, ptr, ptr, ptr, ptr, ptr, ptr, ptr, ptr, ptr, ptr, ptr, ptr, ptr, ptr, ptr, ptr }
%struct.hwloc_topology_support = type { ptr, ptr, ptr, ptr }
%struct.hwloc_infos_s = type { ptr, i32, i32 }
%struct.hwloc_numanode_attr_s = type { i64, i32, ptr }
%struct.hwloc_topology_discovery_support = type { i8, i8, i8, i8, i8, i8 }
%struct.hwloc_obj = type { i32, ptr, i32, ptr, i64, ptr, i32, i32, ptr, ptr, ptr, i32, ptr, ptr, i32, ptr, ptr, ptr, i32, i32, ptr, i32, ptr, i32, ptr, ptr, ptr, ptr, ptr, %struct.hwloc_infos_s, ptr, i64 }

@.str = private unnamed_addr constant [4 x i8] c"x86\00", align 1
@stderr = external global ptr, align 8
@.str.3 = private unnamed_addr constant [28 x i8] c"HWLOC_X86_TOPOEXT_NUMANODES\00", align 1
@.str.4 = private unnamed_addr constant [174 x i8] c"hwloc x86 backend cannot work under Valgrind, disabling.\0AMay be reenabled by dumping CPUIDs with hwloc-gather-cpuid\0Aand reloading them under Valgrind with HWLOC_CPUID_PATH.\0A\00", align 1
@.str.5 = private unnamed_addr constant [8 x i8] c"Backend\00", align 1

; Function Attrs: nounwind uwtable
define internal i32 @hwloc_x86_discover(ptr noundef %0, ptr noundef %1) #0 {
  %3 = alloca i32, align 4
  %4 = alloca ptr, align 8
  %5 = alloca ptr, align 8
  %6 = alloca ptr, align 8
  %7 = alloca ptr, align 8
  %8 = alloca i64, align 8
  %9 = alloca i32, align 4
  %10 = alloca i32, align 4
  %11 = alloca i32, align 4
  %12 = alloca [6 x i64], align 16
  %13 = alloca i64, align 8
  %14 = alloca i64, align 8
  %15 = alloca i32, align 4
  store ptr %0, ptr %4, align 8, !tbaa !13
  store ptr %1, ptr %5, align 8, !tbaa !40
  call void @llvm.lifetime.start.p0(i64 8, ptr %6) #15
  %16 = load ptr, ptr %4, align 8, !tbaa !13
  %17 = getelementptr inbounds nuw i8, ptr %16, i64 80
  store ptr %17, ptr %6, align 8, !tbaa !19
  call void @llvm.lifetime.start.p0(i64 8, ptr %7) #15
  %18 = load ptr, ptr %4, align 8, !tbaa !13
  %19 = getelementptr inbounds nuw %struct.hwloc_backend, ptr %18, i32 0, i32 1
  %20 = load ptr, ptr %19, align 8, !tbaa !42
  store ptr %20, ptr %7, align 8, !tbaa !3
  call void @llvm.lifetime.start.p0(i64 8, ptr %8) #15
  store i64 0, ptr %8, align 8, !tbaa !43
  call void @llvm.lifetime.start.p0(i64 4, ptr %9) #15
  store i32 0, ptr %9, align 4, !tbaa !10
  call void @llvm.lifetime.start.p0(i64 4, ptr %10) #15
  %21 = load ptr, ptr %7, align 8, !tbaa !3
  %22 = getelementptr inbounds nuw %struct.hwloc_topology, ptr %21, i32 0, i32 5
  %23 = load i64, ptr %22, align 8, !tbaa !44
  %24 = and i64 %23, 64
  %25 = icmp ne i64 %24, 0
  br i1 %25, label %26, label %27

26:                                               ; preds = %2
  store i32 0, ptr %3, align 4
  store i32 1, ptr %11, align 4
  br label %155

27:                                               ; preds = %2
  %28 = call ptr @getenv(ptr noundef @.str.3) #15
  %29 = icmp ne ptr %28, null
  br i1 %29, label %30, label %33

30:                                               ; preds = %27
  %31 = load i64, ptr %8, align 8, !tbaa !43
  %32 = or i64 %31, 2
  store i64 %32, ptr %8, align 8, !tbaa !43
  br label %33

33:                                               ; preds = %30, %27
  call void @llvm.lifetime.start.p0(i64 48, ptr %12) #15
  call void @llvm.lifetime.start.p0(i64 8, ptr %13) #15
  %34 = getelementptr inbounds [6 x i64], ptr %12, i64 0, i64 0
  store volatile i64 4097, ptr %34, align 16, !tbaa !43
  %35 = getelementptr inbounds [6 x i64], ptr %12, i64 0, i64 1
  store volatile i64 0, ptr %35, align 8, !tbaa !43
  %36 = getelementptr inbounds [6 x i64], ptr %12, i64 0, i64 2
  store volatile i64 0, ptr %36, align 16, !tbaa !43
  %37 = getelementptr inbounds [6 x i64], ptr %12, i64 0, i64 3
  store volatile i64 0, ptr %37, align 8, !tbaa !43
  %38 = getelementptr inbounds [6 x i64], ptr %12, i64 0, i64 4
  store volatile i64 0, ptr %38, align 16, !tbaa !43
  %39 = getelementptr inbounds [6 x i64], ptr %12, i64 0, i64 5
  store volatile i64 0, ptr %39, align 8, !tbaa !43
  %40 = getelementptr inbounds [6 x i64], ptr %12, i64 0, i64 0
  %41 = call i64 asm sideeffect "rolq $$3,  %rdi ; rolq $$13, %rdi\0A\09rolq $$61, %rdi ; rolq $$51, %rdi\0A\09xchgq %rbx,%rbx", "={dx},{ax},0,~{cc},~{memory},~{dirflag},~{fpsr},~{flags}"(ptr %40, i64 0) #15, !srcloc !65
  store volatile i64 %41, ptr %13, align 8, !tbaa !43
  %42 = load volatile i64, ptr %13, align 8, !tbaa !43
  store i64 %42, ptr %14, align 8, !tbaa !43
  call void @llvm.lifetime.end.p0(i64 8, ptr %13) #15
  call void @llvm.lifetime.end.p0(i64 48, ptr %12) #15
  %43 = load i64, ptr %14, align 8, !tbaa !43
  %44 = trunc i64 %43 to i32
  %45 = icmp ne i32 %44, 0
  br i1 %45, label %46, label %54

46:                                               ; preds = %33
  %47 = load ptr, ptr %6, align 8, !tbaa !19
  %48 = getelementptr inbounds nuw %struct.hwloc_x86_backend_data_s, ptr %47, i32 0, i32 3
  %49 = load ptr, ptr %48, align 8, !tbaa !28
  %50 = icmp ne ptr %49, null
  br i1 %50, label %54, label %51

51:                                               ; preds = %46
  %52 = load ptr, ptr @stderr, align 8, !tbaa !38
  %53 = call i32 (ptr, ptr, ...) @fprintf(ptr noundef %52, ptr noundef @.str.4) #15
  store i32 0, ptr %3, align 4
  store i32 1, ptr %11, align 4
  br label %155

54:                                               ; preds = %46, %33
  %55 = load ptr, ptr %6, align 8, !tbaa !19
  %56 = getelementptr inbounds nuw %struct.hwloc_x86_backend_data_s, ptr %55, i32 0, i32 3
  %57 = load ptr, ptr %56, align 8, !tbaa !28
  %58 = icmp ne ptr %57, null
  br i1 %58, label %59, label %65

59:                                               ; preds = %54
  %60 = load ptr, ptr %7, align 8, !tbaa !3
  %61 = getelementptr inbounds nuw %struct.hwloc_topology, ptr %60, i32 0, i32 19
  %62 = getelementptr inbounds nuw %struct.hwloc_topology_support, ptr %61, i32 0, i32 0
  %63 = load ptr, ptr %62, align 8, !tbaa !66
  %64 = getelementptr inbounds nuw %struct.hwloc_topology_discovery_support, ptr %63, i32 0, i32 0
  store i8 1, ptr %64, align 1, !tbaa !67
  br label %80

65:                                               ; preds = %54
  call void @llvm.lifetime.start.p0(i64 4, ptr %15) #15
  %66 = call i32 @hwloc_fallback_nbprocessors(i32 noundef 1)
  store i32 %66, ptr %15, align 4, !tbaa !10
  %67 = load i32, ptr %15, align 4, !tbaa !10
  %68 = icmp sge i32 %67, 1
  br i1 %68, label %69, label %75

69:                                               ; preds = %65
  %70 = load ptr, ptr %7, align 8, !tbaa !3
  %71 = getelementptr inbounds nuw %struct.hwloc_topology, ptr %70, i32 0, i32 19
  %72 = getelementptr inbounds nuw %struct.hwloc_topology_support, ptr %71, i32 0, i32 0
  %73 = load ptr, ptr %72, align 8, !tbaa !66
  %74 = getelementptr inbounds nuw %struct.hwloc_topology_discovery_support, ptr %73, i32 0, i32 0
  store i8 1, ptr %74, align 1, !tbaa !67
  br label %76

75:                                               ; preds = %65
  store i32 1, ptr %15, align 4, !tbaa !10
  br label %76

76:                                               ; preds = %75, %69
  %77 = load i32, ptr %15, align 4, !tbaa !10
  %78 = load ptr, ptr %6, align 8, !tbaa !19
  %79 = getelementptr inbounds nuw %struct.hwloc_x86_backend_data_s, ptr %78, i32 0, i32 0
  store i32 %77, ptr %79, align 8, !tbaa !37
  call void @llvm.lifetime.end.p0(i64 4, ptr %15) #15
  br label %80

80:                                               ; preds = %76, %59
  %81 = load ptr, ptr %7, align 8, !tbaa !3
  %82 = getelementptr inbounds nuw %struct.hwloc_topology, ptr %81, i32 0, i32 4
  %83 = load ptr, ptr %82, align 8, !tbaa !69
  %84 = getelementptr inbounds ptr, ptr %83, i64 0
  %85 = load ptr, ptr %84, align 8, !tbaa !70
  %86 = getelementptr inbounds ptr, ptr %85, i64 0
  %87 = load ptr, ptr %86, align 8, !tbaa !72
  %88 = getelementptr inbounds nuw %struct.hwloc_obj, ptr %87, i32 0, i32 25
  %89 = load ptr, ptr %88, align 8, !tbaa !74
  %90 = icmp ne ptr %89, null
  br i1 %90, label %91, label %120

91:                                               ; preds = %80
  %92 = load ptr, ptr %7, align 8, !tbaa !3
  %93 = call i32 @hwloc__reconnect(ptr noundef %92, i64 noundef 0)
  %94 = load ptr, ptr %7, align 8, !tbaa !3
  %95 = getelementptr inbounds nuw %struct.hwloc_topology, ptr %94, i32 0, i32 1
  %96 = load i32, ptr %95, align 4, !tbaa !77
  %97 = icmp eq i32 %96, 2
  br i1 %97, label %98, label %109

98:                                               ; preds = %91
  %99 = load ptr, ptr %7, align 8, !tbaa !3
  %100 = getelementptr inbounds nuw %struct.hwloc_topology, ptr %99, i32 0, i32 3
  %101 = load ptr, ptr %100, align 8, !tbaa !78
  %102 = getelementptr inbounds i32, ptr %101, i64 1
  %103 = load i32, ptr %102, align 4, !tbaa !10
  %104 = load ptr, ptr %6, align 8, !tbaa !19
  %105 = getelementptr inbounds nuw %struct.hwloc_x86_backend_data_s, ptr %104, i32 0, i32 0
  %106 = load i32, ptr %105, align 8, !tbaa !37
  %107 = icmp eq i32 %103, %106
  br i1 %107, label %108, label %109

108:                                              ; preds = %98
  store i32 1, ptr %9, align 4, !tbaa !10
  br label %129

109:                                              ; preds = %98, %91
  %110 = load ptr, ptr %4, align 8, !tbaa !13
  %111 = load i64, ptr %8, align 8, !tbaa !43
  %112 = call i32 @hwloc_look_x86(ptr noundef %110, i64 noundef %111)
  store i32 %112, ptr %10, align 4, !tbaa !10
  %113 = load i32, ptr %10, align 4, !tbaa !10
  %114 = icmp ne i32 %113, 0
  br i1 %114, label %115, label %119

115:                                              ; preds = %109
  %116 = load ptr, ptr %7, align 8, !tbaa !3
  %117 = getelementptr inbounds nuw %struct.hwloc_topology, ptr %116, i32 0, i32 20
  %118 = call i32 @hwloc__add_info(ptr noundef %117, ptr noundef @.str.5, ptr noundef @.str)
  br label %119

119:                                              ; preds = %115, %109
  store i32 0, ptr %3, align 4
  store i32 1, ptr %11, align 4
  br label %155

120:                                              ; preds = %80
  %121 = load ptr, ptr %7, align 8, !tbaa !3
  %122 = getelementptr inbounds nuw %struct.hwloc_topology, ptr %121, i32 0, i32 4
  %123 = load ptr, ptr %122, align 8, !tbaa !69
  %124 = getelementptr inbounds ptr, ptr %123, i64 0
  %125 = load ptr, ptr %124, align 8, !tbaa !70
  %126 = getelementptr inbounds ptr, ptr %125, i64 0
  %127 = load ptr, ptr %126, align 8, !tbaa !72
  call void @hwloc_alloc_root_sets(ptr noundef %127)
  br label %128

128:                                              ; preds = %120
  br label %129

129:                                              ; preds = %128, %108
  %130 = load ptr, ptr %4, align 8, !tbaa !13
  %131 = load i64, ptr %8, align 8, !tbaa !43
  %132 = or i64 %131, 1
  %133 = call i32 @hwloc_look_x86(ptr noundef %130, i64 noundef %132)
  %134 = icmp slt i32 %133, 0
  br i1 %134, label %135, label %144

135:                                              ; preds = %129
  %136 = load i32, ptr %9, align 4, !tbaa !10
  %137 = icmp ne i32 %136, 0
  br i1 %137, label %143, label %138

138:                                              ; preds = %135
  %139 = load ptr, ptr %7, align 8, !tbaa !3
  %140 = load ptr, ptr %6, align 8, !tbaa !19
  %141 = getelementptr inbounds nuw %struct.hwloc_x86_backend_data_s, ptr %140, i32 0, i32 0
  %142 = load i32, ptr %141, align 8, !tbaa !37
  call void @hwloc_setup_pu_level(ptr noundef %139, i32 noundef %142)
  br label %143

143:                                              ; preds = %138, %135
  br label %144

144:                                              ; preds = %143, %129
  %145 = load ptr, ptr %7, align 8, !tbaa !3
  %146 = getelementptr inbounds nuw %struct.hwloc_topology, ptr %145, i32 0, i32 20
  %147 = call i32 @hwloc__add_info(ptr noundef %146, ptr noundef @.str.5, ptr noundef @.str)
  %148 = load ptr, ptr %6, align 8, !tbaa !19
  %149 = getelementptr inbounds nuw %struct.hwloc_x86_backend_data_s, ptr %148, i32 0, i32 3
  %150 = load ptr, ptr %149, align 8, !tbaa !28
  %151 = icmp ne ptr %150, null
  br i1 %151, label %154, label %152

152:                                              ; preds = %144
  %153 = load ptr, ptr %7, align 8, !tbaa !3
  call void @hwloc_add_uname_info(ptr noundef %153, ptr noundef null)
  br label %154

154:                                              ; preds = %152, %144
  store i32 1, ptr %3, align 4
  store i32 1, ptr %11, align 4
  br label %155

155:                                              ; preds = %154, %119, %51, %26
  call void @llvm.lifetime.end.p0(i64 4, ptr %10) #15
  call void @llvm.lifetime.end.p0(i64 4, ptr %9) #15
  call void @llvm.lifetime.end.p0(i64 8, ptr %8) #15
  call void @llvm.lifetime.end.p0(i64 8, ptr %7) #15
  call void @llvm.lifetime.end.p0(i64 8, ptr %6) #15
  %156 = load i32, ptr %3, align 4
  ret i32 %156
}