; Function Attrs: nounwind uwtable
define internal range(i32 0, 2) i32 @hwloc_x86_discover(ptr noundef captures(none) %0, ptr readnone captures(none) %1) #0 {
  %3 = alloca [6 x i64], align 16
  %4 = alloca i64, align 8
  %5 = getelementptr inbounds nuw i8, ptr %0, i64 80
  %6 = getelementptr inbounds nuw i8, ptr %0, i64 8
  %7 = load ptr, ptr %6, align 8, !tbaa !30
  %8 = getelementptr inbounds nuw i8, ptr %7, i64 32
  %9 = load i64, ptr %8, align 8, !tbaa !31
  %10 = and i64 %9, 64
  %.not = icmp eq i64 %10, 0
  br i1 %.not, label %11, label %76

11:                                               ; preds = %2
  %12 = tail call ptr @getenv(ptr noundef nonnull @.str.3) #22
  %.not36 = icmp eq ptr %12, null
  %spec.select = select i1 %.not36, i64 0, i64 2
  call void @llvm.lifetime.start.p0(i64 48, ptr nonnull %3) #22
  call void @llvm.lifetime.start.p0(i64 8, ptr nonnull %4)
  store volatile i64 4097, ptr %3, align 16, !tbaa !52
  %13 = getelementptr inbounds nuw i8, ptr %3, i64 8
  store volatile i64 0, ptr %13, align 8, !tbaa !52
  %14 = getelementptr inbounds nuw i8, ptr %3, i64 16
  store volatile i64 0, ptr %14, align 16, !tbaa !52
  %15 = getelementptr inbounds nuw i8, ptr %3, i64 24
  store volatile i64 0, ptr %15, align 8, !tbaa !52
  %16 = getelementptr inbounds nuw i8, ptr %3, i64 32
  store volatile i64 0, ptr %16, align 16, !tbaa !52
  %17 = getelementptr inbounds nuw i8, ptr %3, i64 40
  store volatile i64 0, ptr %17, align 8, !tbaa !52
  %18 = call i64 asm sideeffect "rolq $$3,  %rdi ; rolq $$13, %rdi\0A\09rolq $$61, %rdi ; rolq $$51, %rdi\0A\09xchgq %rbx,%rbx", "={dx},{ax},0,~{cc},~{memory},~{dirflag},~{fpsr},~{flags}"(ptr nonnull %3, i64 0) #22, !srcloc !53
  store volatile i64 %18, ptr %4, align 8, !tbaa !52
  %.0..0..0..0. = load volatile i64, ptr %4, align 8, !tbaa !52
  call void @llvm.lifetime.end.p0(i64 8, ptr nonnull %4)
  call void @llvm.lifetime.end.p0(i64 48, ptr nonnull %3) #22
  %19 = and i64 %.0..0..0..0., 4294967295
  %.not37 = icmp eq i64 %19, 0
  %.phi.trans.insert = getelementptr inbounds nuw i8, ptr %0, i64 104
  %.pre = load ptr, ptr %.phi.trans.insert, align 8, !tbaa !21
  %20 = icmp eq ptr %.pre, null
  br i1 %.not37, label %26, label %21

21:                                               ; preds = %11
  br i1 %20, label %23, label %.thread

.thread:                                          ; preds = %21
  %22 = getelementptr inbounds nuw i8, ptr %0, i64 104
  br label %28

23:                                               ; preds = %21
  %24 = load ptr, ptr @stderr, align 8, !tbaa !22
  %25 = call i64 @fwrite(ptr nonnull @.str.4, i64 173, i64 1, ptr %24) #26
  br label %76

26:                                               ; preds = %11
  %27 = getelementptr inbounds nuw i8, ptr %0, i64 104
  br i1 %20, label %32, label %28

28:                                               ; preds = %.thread, %26
  %29 = phi ptr [ %22, %.thread ], [ %27, %26 ]
  %30 = getelementptr inbounds nuw i8, ptr %7, i64 656
  %31 = load ptr, ptr %30, align 8, !tbaa !54
  store i8 1, ptr %31, align 1, !tbaa !55
  br label %39

32:                                               ; preds = %26
  %33 = call i32 @hwloc_fallback_nbprocessors(i32 noundef 1) #22
  %34 = icmp sgt i32 %33, 0
  br i1 %34, label %35, label %38

35:                                               ; preds = %32
  %36 = getelementptr inbounds nuw i8, ptr %7, i64 656
  %37 = load ptr, ptr %36, align 8, !tbaa !54
  store i8 1, ptr %37, align 1, !tbaa !55
  br label %38

38:                                               ; preds = %32, %35
  %.0 = phi i32 [ %33, %35 ], [ 1, %32 ]
  store i32 %.0, ptr %5, align 8, !tbaa !29
  br label %39

39:                                               ; preds = %38, %28
  %40 = phi ptr [ %27, %38 ], [ %29, %28 ]
  %41 = getelementptr inbounds nuw i8, ptr %7, i64 24
  %42 = load ptr, ptr %41, align 8, !tbaa !57
  %43 = load ptr, ptr %42, align 8, !tbaa !58
  %44 = load ptr, ptr %43, align 8, !tbaa !60
  %45 = getelementptr inbounds nuw i8, ptr %44, i64 184
  %46 = load ptr, ptr %45, align 8, !tbaa !62
  %.not40 = icmp ne ptr %46, null
  br i1 %.not40, label %47, label %64

47:                                               ; preds = %39
  %48 = call i32 @hwloc__reconnect(ptr noundef nonnull %7, i64 noundef 0) #22
  %49 = getelementptr inbounds nuw i8, ptr %7, i64 4
  %50 = load i32, ptr %49, align 4, !tbaa !65
  %51 = icmp eq i32 %50, 2
  br i1 %51, label %52, label %59

52:                                               ; preds = %47
  %53 = getelementptr inbounds nuw i8, ptr %7, i64 16
  %54 = load ptr, ptr %53, align 8, !tbaa !66
  %55 = getelementptr inbounds nuw i8, ptr %54, i64 4
  %56 = load i32, ptr %55, align 4, !tbaa !67
  %57 = load i32, ptr %5, align 8, !tbaa !29
  %58 = icmp eq i32 %56, %57
  br i1 %58, label %65, label %59

59:                                               ; preds = %52, %47
  %60 = call fastcc i32 @hwloc_look_x86(ptr noundef nonnull %0, i64 noundef %spec.select)
  %.not41 = icmp eq i32 %60, 0
  br i1 %.not41, label %76, label %61

61:                                               ; preds = %59
  %62 = getelementptr inbounds nuw i8, ptr %7, i64 688
  %63 = call i32 @hwloc__add_info(ptr noundef nonnull %62, ptr noundef nonnull @.str.5, ptr noundef nonnull @.str) #22
  br label %76

64:                                               ; preds = %39
  call void @hwloc_alloc_root_sets(ptr noundef nonnull %44) #22
  br label %65

65:                                               ; preds = %52, %64
  %66 = or disjoint i64 %spec.select, 1
  %67 = call fastcc i32 @hwloc_look_x86(ptr noundef nonnull %0, i64 noundef %66)
  %68 = icmp sgt i32 %67, -1
  %or.cond = or i1 %.not40, %68
  br i1 %or.cond, label %71, label %69

69:                                               ; preds = %65
  %70 = load i32, ptr %5, align 8, !tbaa !29
  call void @hwloc_setup_pu_level(ptr noundef nonnull %7, i32 noundef %70) #22
  br label %71

71:                                               ; preds = %69, %65
  %72 = getelementptr inbounds nuw i8, ptr %7, i64 688
  %73 = call i32 @hwloc__add_info(ptr noundef nonnull %72, ptr noundef nonnull @.str.5, ptr noundef nonnull @.str) #22
  %74 = load ptr, ptr %40, align 8, !tbaa !21
  %.not42 = icmp eq ptr %74, null
  br i1 %.not42, label %75, label %76

75:                                               ; preds = %71
  call void @hwloc_add_uname_info(ptr noundef nonnull %7, ptr noundef null) #22
  br label %76

76:                                               ; preds = %71, %75, %59, %61, %2, %23
  %.032 = phi i32 [ 0, %23 ], [ 0, %2 ], [ 0, %61 ], [ 0, %59 ], [ 1, %75 ], [ 1, %71 ]
  ret i32 %.032
}